target datalayout = "e-m:e-p270:32:32-p271:32:32-p272:64:64-i64:64-i128:128-f80:128-n8:16:32:64-S128"
target triple = "x86_64-pc-linux-gnu"

; Function Attrs: mustprogress nounwind uwtable
define hidden noundef ptr @_ZN12ImageStrings11starts_withEPKcS1_(ptr noundef %0, ptr noundef %1) #0 align 2 {
  %3 = alloca ptr, align 8
  %4 = alloca ptr, align 8
  %5 = alloca ptr, align 8
  %6 = alloca i8, align 1
  %7 = alloca i8, align 1
  store ptr %0, ptr %4, align 8
  store ptr %1, ptr %5, align 8
  br label %8

8:                                                ; preds = %25, %2
  %9 = load ptr, ptr %4, align 8
  %10 = load i8, ptr %9, align 1
  store i8 %10, ptr %6, align 1
  %11 = icmp ne i8 %10, 0
  br i1 %11, label %12, label %16

12:                                               ; preds = %8
  %13 = load ptr, ptr %5, align 8
  %14 = load i8, ptr %13, align 1
  store i8 %14, ptr %7, align 1
  %15 = icmp ne i8 %14, 0
  br label %16

16:                                               ; preds = %12, %8
  %17 = phi i1 [ false, %8 ], [ %15, %12 ]
  br i1 %17, label %18, label %30

18:                                               ; preds = %16
  %19 = load i8, ptr %6, align 1
  %20 = sext i8 %19 to i32
  %21 = load i8, ptr %7, align 1
  %22 = sext i8 %21 to i32
  %23 = icmp ne i32 %20, %22
  br i1 %23, label %24, label %25

24:                                               ; preds = %18
  store ptr null, ptr %3, align 8
  br label %32

25:                                               ; preds = %18
  %26 = load ptr, ptr %4, align 8
  %27 = getelementptr inbounds i8, ptr %26, i32 1
  store ptr %27, ptr %4, align 8
  %28 = load ptr, ptr %5, align 8
  %29 = getelementptr inbounds i8, ptr %28, i32 1
  store ptr %29, ptr %5, align 8
  br label %8, !llvm.loop !8

30:                                               ; preds = %16
  %31 = load ptr, ptr %4, align 8
  store ptr %31, ptr %3, align 8
  br label %32

32:                                               ; preds = %30, %24
  %33 = load ptr, ptr %3, align 8
  ret ptr %33
}