; Function Attrs: mustprogress nofree norecurse nosync nounwind willreturn memory(read, inaccessiblemem: none) uwtable
define hidden noundef ptr @_ZN12ImageStrings11starts_withEPKcS1_(ptr noundef readonly %0, ptr nocapture noundef readonly %1) local_unnamed_addr #0 align 2 {
  %3 = load i8, ptr %0, align 1
  %.not13 = icmp eq i8 %3, 0
  br i1 %.not13, label %.critedge, label %.lr.ph

.lr.ph:                                           ; preds = %2, %7
  %4 = phi i8 [ %10, %7 ], [ %3, %2 ]
  %.0715 = phi ptr [ %8, %7 ], [ %0, %2 ]
  %.0814 = phi ptr [ %9, %7 ], [ %1, %2 ]
  %5 = load i8, ptr %.0814, align 1
  %.not11 = icmp eq i8 %5, 0
  br i1 %.not11, label %.critedge, label %6

6:                                                ; preds = %.lr.ph
  %.not12 = icmp eq i8 %4, %5
  br i1 %.not12, label %7, label %.critedge

7:                                                ; preds = %6
  %8 = getelementptr inbounds i8, ptr %.0715, i64 1
  %9 = getelementptr inbounds i8, ptr %.0814, i64 1
  %10 = load i8, ptr %8, align 1
  %.not = icmp eq i8 %10, 0
  br i1 %.not, label %.critedge, label %.lr.ph, !llvm.loop !8

.critedge:                                        ; preds = %6, %7, %.lr.ph, %2
  %.0 = phi ptr [ %0, %2 ], [ %.0715, %.lr.ph ], [ %8, %7 ], [ null, %6 ]
  ret ptr %.0
}